; Function Attrs: mustprogress nounwind uwtable
define void @_ZN7glslang11HlslGrammar8expectedEPKc(ptr noundef nonnull align 8 dereferenceable(360) %0, ptr noundef %1) local_unnamed_addr #0 align 2 {
  %3 = getelementptr inbounds i8, ptr %0, i64 328
  %4 = load ptr, ptr %3, align 8
  %5 = getelementptr inbounds i8, ptr %0, i64 8
  %6 = load ptr, ptr %4, align 8
  %7 = getelementptr inbounds i8, ptr %6, i64 344
  %8 = load ptr, ptr %7, align 8
  tail call void (ptr, ptr, ptr, ptr, ptr, ...) %8(ptr noundef nonnull align 8 dereferenceable(1280) %4, ptr noundef nonnull align 8 dereferenceable(24) %5, ptr noundef nonnull @.str, ptr noundef %1, ptr noundef nonnull @.str.1) #16
  ret void
}